; Function Attrs: mustprogress nounwind uwtable
define noundef nonnull align 8 dereferenceable(8) ptr @_ZN2cv10AsyncArrayaSERKS0_(ptr noundef nonnull returned align 8 dereferenceable(8) %0, ptr noundef nonnull readonly align 8 captures(none) dereferenceable(8) %1) local_unnamed_addr #4 align 2 {
  %3 = load ptr, ptr %1, align 8, !tbaa !3
  %.not = icmp eq ptr %3, null
  br i1 %.not, label %8, label %4

4:                                                ; preds = %2
  %5 = getelementptr inbounds nuw i8, ptr %3, i64 4
  %6 = atomicrmw add ptr %5, i32 1 acq_rel, align 4
  %7 = atomicrmw add ptr %3, i32 1 acq_rel, align 8
  br label %8

8:                                                ; preds = %4, %2
  %9 = load ptr, ptr %0, align 8, !tbaa !3
  store ptr null, ptr %0, align 8, !tbaa !3
  %.not.i = icmp eq ptr %9, null
  br i1 %.not.i, label %_ZN2cv10AsyncArray7releaseEv.exit, label %10

10:                                               ; preds = %8
  %11 = getelementptr inbounds nuw i8, ptr %9, i64 4
  %12 = atomicrmw add ptr %11, i32 -1 acq_rel, align 4
  %13 = atomicrmw add ptr %9, i32 -1 acq_rel, align 8
  %.not.i.i = icmp eq i32 %13, 1
  br i1 %.not.i.i, label %14, label %_ZN2cv10AsyncArray7releaseEv.exit

14:                                               ; preds = %10
  tail call void @_ZN2cv10AsyncArray4ImplD2Ev(ptr noundef nonnull align 8 dereferenceable(314) %9) #23
  tail call void @_ZdlPv(ptr noundef nonnull align 8 dereferenceable(314) %9) #24
  br label %_ZN2cv10AsyncArray7releaseEv.exit

_ZN2cv10AsyncArray7releaseEv.exit:                ; preds = %8, %10, %14
  store ptr %3, ptr %0, align 8, !tbaa !3
  ret ptr %0
}